ccollections
defaultdict
p0
(c__builtin__
int
p1
tp2
Rp3
ccopy_reg
_reconstructor
p4
(cpath
path
p5
c__builtin__
str
p6
S'/home/ddd/images2/gifgif.gif'
p7
tp8
Rp9
I0
sg4
(g5
g6
S'/home/ddd/images2/png.png'
p10
tp11
Rp12
I0
sg4
(g5
g6
S'/home/ddd/images2/gif.gif'
p13
tp14
Rp15
I0
sg4
(g5
g6
S'/home/ddd/images2/jpg.jpg'
p16
tp17
Rp18
I0
sg4
(g5
g6
S'/home/ddd/images2/jpg-original.jpg'
p19
tp20
Rp21
I0
sg4
(g5
g6
S'/home/ddd/images2/gifgif-original.gif'
p22
tp23
Rp24
I0
sg4
(g5
g6
S'/home/ddd/images2/gif-original.gif'
p25
tp26
Rp27
I0
sg4
(g5
g6
S'/home/ddd/images2/png-original.png'
p28
tp29
Rp30
I0
s.