(dp0
ccopy_reg
_reconstructor
p1
(cpath
path
p2
c__builtin__
str
p3
S'/home/ddd/images2/jpg.jpg'
p4
tp5
Rp6
g1
(g2
g3
S'/home/ddd/images2/jpg-original.jpg'
p7
tp8
Rp9
sg1
(g2
g3
S'/home/ddd/images2/gifgif.gif'
p10
tp11
Rp12
g1
(g2
g3
S'/home/ddd/images2/gifgif-original.gif'
p13
tp14
Rp15
sg1
(g2
g3
S'/home/ddd/images2/gif.gif'
p16
tp17
Rp18
g1
(g2
g3
S'/home/ddd/images2/gif-original.gif'
p19
tp20
Rp21
sg1
(g2
g3
S'/home/ddd/images2/png.png'
p22
tp23
Rp24
g1
(g2
g3
S'/home/ddd/images2/png-original.png'
p25
tp26
Rp27
s.