(dp0
ccopy_reg
_reconstructor
p1
(cpath
path
p2
c__builtin__
str
p3
S'/home/ddd/images2/gif-original.gif'
p4
tp5
Rp6
Nsg1
(g2
g3
S'/home/ddd/images2/jpg-original.jpg'
p7
tp8
Rp9
Nsg1
(g2
g3
S'/home/ddd/images2/gifgif-original.gif'
p10
tp11
Rp12
Nsg1
(g2
g3
S'/home/ddd/images2/png-original.png'
p13
tp14
Rp15
Ns.